target datalayout = "e-m:e-p270:32:32-p271:32:32-p272:64:64-i64:64-i128:128-f80:128-n8:16:32:64-S128"
target triple = "x86_64-unknown-linux-gnu"

%"class.absl::Status" = type { i64 }
%"class.absl::BadStatusOrAccess" = type { %"class.std::exception", %"class.absl::Status", %"class.absl::once_flag", %"class.std::__cxx11::basic_string" }
%"class.std::exception" = type { ptr }
%"class.absl::once_flag" = type { %"struct.std::atomic" }
%"struct.std::atomic" = type { %"struct.std::__atomic_base" }
%"struct.std::__atomic_base" = type { i32 }
%"class.std::__cxx11::basic_string" = type { %"struct.std::__cxx11::basic_string<char>::_Alloc_hider", i64, %union.anon }
%"struct.std::__cxx11::basic_string<char>::_Alloc_hider" = type { ptr }
%union.anon = type { i64, [8 x i8] }

; Function Attrs: mustprogress nounwind uwtable
define linkonce_odr dso_local noundef ptr @_ZN4absl6Status12RepToPointerEm(i64 noundef %rep) #5 comdat align 2 {
entry:
  %rep.addr = alloca i64, align 8
  store i64 %rep, ptr %rep.addr, align 8
  %0 = load i64, ptr %rep.addr, align 8
  %1 = inttoptr i64 %0 to ptr
  ret ptr %1
}

; Function Attrs: mustprogress nounwind uwtable
define linkonce_odr dso_local noundef zeroext i1 @_ZN4absl6Status9IsInlinedEm(i64 noundef %rep) #5 comdat align 2 {
entry:
  %rep.addr = alloca i64, align 8
  store i64 %rep, ptr %rep.addr, align 8
  %0 = load i64, ptr %rep.addr, align 8
  %and = and i64 %0, 1
  %cmp = icmp ne i64 %and, 0
  ret i1 %cmp
}

; Function Attrs: mustprogress nounwind uwtable
define linkonce_odr dso_local noundef i64 @_ZN4absl6Status16CodeToInlinedRepENS_10StatusCodeE(i32 noundef %code) #5 comdat align 2 {
entry:
  %code.addr = alloca i32, align 4
  store i32 %code, ptr %code.addr, align 4
  %0 = load i32, ptr %code.addr, align 4
  %conv = sext i32 %0 to i64
  %shl = shl i64 %conv, 2
  %add = add i64 %shl, 1
  ret i64 %add
}

; Function Attrs: mustprogress uwtable
define linkonce_odr dso_local void @_ZN4absl6Status5UnrefEm(i64 noundef %rep) #4 comdat align 2 {
entry:
  %rep.addr = alloca i64, align 8
  store i64 %rep, ptr %rep.addr, align 8
  %0 = load i64, ptr %rep.addr, align 8
  %call = call noundef zeroext i1 @_ZN4absl6Status9IsInlinedEm(i64 noundef %0)
  br i1 %call, label %if.end, label %if.then

if.then:                                          ; preds = %entry
  %1 = load i64, ptr %rep.addr, align 8
  %call1 = call noundef ptr @_ZN4absl6Status12RepToPointerEm(i64 noundef %1)
  call void @_ZNK4absl15status_internal9StatusRep5UnrefEv(ptr noundef nonnull align 8 dereferenceable(48) %call1)
  br label %if.end

if.end:                                           ; preds = %if.then, %entry
  ret void
}

; Function Attrs: mustprogress uwtable
define linkonce_odr dso_local noundef i64 @_ZN4absl6Status12MovedFromRepEv() #4 comdat align 2 {
entry:
  %call = call noundef i64 @_ZN4absl6Status16CodeToInlinedRepENS_10StatusCodeE(i32 noundef 13)
  %or = or i64 %call, 2
  ret i64 %or
}

; Function Attrs: mustprogress uwtable
define linkonce_odr dso_local noundef nonnull align 8 dereferenceable(8) ptr @_ZN4absl6StatusaSEOS0_(ptr noundef nonnull align 8 dereferenceable(8) %this, ptr noundef nonnull align 8 dereferenceable(8) %x) #4 comdat align 2 {
entry:
  %this.addr = alloca ptr, align 8
  %x.addr = alloca ptr, align 8
  %old_rep = alloca i64, align 8
  store ptr %this, ptr %this.addr, align 8
  store ptr %x, ptr %x.addr, align 8
  %this1 = load ptr, ptr %this.addr, align 8
  %rep_ = getelementptr inbounds %"class.absl::Status", ptr %this1, i32 0, i32 0
  %0 = load i64, ptr %rep_, align 8
  store i64 %0, ptr %old_rep, align 8
  %1 = load ptr, ptr %x.addr, align 8
  %rep_2 = getelementptr inbounds %"class.absl::Status", ptr %1, i32 0, i32 0
  %2 = load i64, ptr %rep_2, align 8
  %3 = load i64, ptr %old_rep, align 8
  %cmp = icmp ne i64 %2, %3
  br i1 %cmp, label %if.then, label %if.end

if.then:                                          ; preds = %entry
  %4 = load ptr, ptr %x.addr, align 8
  %rep_3 = getelementptr inbounds %"class.absl::Status", ptr %4, i32 0, i32 0
  %5 = load i64, ptr %rep_3, align 8
  %rep_4 = getelementptr inbounds %"class.absl::Status", ptr %this1, i32 0, i32 0
  store i64 %5, ptr %rep_4, align 8
  %call = call noundef i64 @_ZN4absl6Status12MovedFromRepEv()
  %6 = load ptr, ptr %x.addr, align 8
  %rep_5 = getelementptr inbounds %"class.absl::Status", ptr %6, i32 0, i32 0
  store i64 %call, ptr %rep_5, align 8
  %7 = load i64, ptr %old_rep, align 8
  call void @_ZN4absl6Status5UnrefEm(i64 noundef %7)
  br label %if.end

if.end:                                           ; preds = %if.then, %entry
  ret ptr %this1
}

; Function Attrs: mustprogress uwtable
define dso_local noundef nonnull align 8 dereferenceable(56) ptr @_ZN4absl17BadStatusOrAccessaSEOS0_(ptr noundef nonnull align 8 dereferenceable(56) %this, ptr noundef nonnull align 8 dereferenceable(56) %other) #4 align 2 {
entry:
  %this.addr = alloca ptr, align 8
  %other.addr = alloca ptr, align 8
  store ptr %this, ptr %this.addr, align 8
  store ptr %other, ptr %other.addr, align 8
  %this1 = load ptr, ptr %this.addr, align 8
  %0 = load ptr, ptr %other.addr, align 8
  call void @_ZNK4absl17BadStatusOrAccess8InitWhatEv(ptr noundef nonnull align 8 dereferenceable(56) %0)
  %1 = load ptr, ptr %other.addr, align 8
  %status_ = getelementptr inbounds %"class.absl::BadStatusOrAccess", ptr %1, i32 0, i32 1
  %status_2 = getelementptr inbounds %"class.absl::BadStatusOrAccess", ptr %this1, i32 0, i32 1
  %call = call noundef nonnull align 8 dereferenceable(8) ptr @_ZN4absl6StatusaSEOS0_(ptr noundef nonnull align 8 dereferenceable(8) %status_2, ptr noundef nonnull align 8 dereferenceable(8) %status_)
  %2 = load ptr, ptr %other.addr, align 8
  %what_ = getelementptr inbounds %"class.absl::BadStatusOrAccess", ptr %2, i32 0, i32 3
  %what_3 = getelementptr inbounds %"class.absl::BadStatusOrAccess", ptr %this1, i32 0, i32 3
  %call4 = call noundef nonnull align 8 dereferenceable(32) ptr @_ZNSt7__cxx1112basic_stringIcSt11char_traitsIcESaIcEEaSEOS4_(ptr noundef nonnull align 8 dereferenceable(32) %what_3, ptr noundef nonnull align 8 dereferenceable(32) %what_) #3
  ret ptr %this1
}